target datalayout = "e-m:e-p270:32:32-p271:32:32-p272:64:64-i64:64-i128:128-f80:128-n8:16:32:64-S128"
target triple = "x86_64-pc-linux-gnu"

@hf_afs_vldb_type = internal global i32 0, align 4
@hf_afs_vldb_id = internal global i32 0, align 4
@hf_afs_vldb_bump = internal global i32 0, align 4
@hf_afs_vldb_index = internal global i32 0, align 4
@hf_afs_vldb_name = internal global i32 0, align 4
@hf_afs_vldb_name_uint_string = internal global i32 0, align 4
@hf_afs_vldb_serveruuid = internal global i32 0, align 4
@hf_afs_vldb_serverip = internal global i32 0, align 4
@hf_afs_vldb_spare1 = internal global i32 0, align 4

; Function Attrs: null_pointer_is_valid sspstrong uwtable
define internal void @OUT_RXString(ptr noundef %0, i32 noundef %1) #0 {
  %3 = alloca ptr, align 8
  %4 = alloca i32, align 4
  %5 = alloca i32, align 4
  %6 = alloca i32, align 4
  store ptr %0, ptr %3, align 8
  store i32 %1, ptr %4, align 4
  call void @llvm.lifetime.start.p0(i64 4, ptr %5) #9
  %7 = load ptr, ptr %3, align 8
  %8 = call i32 @ptvcursor_current_offset(ptr noundef %7)
  store i32 %8, ptr %5, align 4
  call void @llvm.lifetime.start.p0(i64 4, ptr %6) #9
  %9 = load ptr, ptr %3, align 8
  %10 = load i32, ptr %4, align 4
  %11 = call ptr @ptvcursor_add(ptr noundef %9, i32 noundef %10, i32 noundef 4, i32 noundef 0)
  %12 = load ptr, ptr %3, align 8
  %13 = call i32 @ptvcursor_current_offset(ptr noundef %12)
  store i32 %13, ptr %6, align 4
  %14 = load i32, ptr %6, align 4
  %15 = load i32, ptr %5, align 4
  %16 = sub i32 %14, %15
  %17 = and i32 %16, 3
  %18 = icmp ne i32 %17, 0
  br i1 %18, label %19, label %26

19:                                               ; preds = %2
  %20 = load ptr, ptr %3, align 8
  %21 = load i32, ptr %6, align 4
  %22 = load i32, ptr %5, align 4
  %23 = sub i32 %21, %22
  %24 = and i32 %23, 3
  %25 = sub i32 4, %24
  call void @ptvcursor_advance(ptr noundef %20, i32 noundef %25)
  br label %26

26:                                               ; preds = %19, %2
  call void @llvm.lifetime.end.p0(i64 4, ptr %6) #9
  call void @llvm.lifetime.end.p0(i64 4, ptr %5) #9
  ret void
}

; Function Attrs: null_pointer_is_valid sspstrong uwtable
define internal void @dissect_vldb_request(ptr noundef %0, ptr noundef %1, i32 noundef %2) #0 {
  %4 = alloca ptr, align 8
  %5 = alloca ptr, align 8
  %6 = alloca i32, align 4
  %7 = alloca i32, align 4
  %8 = alloca i32, align 4
  store ptr %0, ptr %4, align 8
  store ptr %1, ptr %5, align 8
  store i32 %2, ptr %6, align 4
  %9 = load ptr, ptr %4, align 8
  call void @ptvcursor_advance(ptr noundef %9, i32 noundef 4)
  %10 = load i32, ptr %6, align 4
  switch i32 %10, label %66 [
    i32 501, label %11
    i32 517, label %11
    i32 502, label %14
    i32 503, label %14
    i32 507, label %14
    i32 508, label %14
    i32 509, label %14
    i32 518, label %14
    i32 504, label %21
    i32 519, label %21
    i32 524, label %21
    i32 527, label %21
    i32 505, label %24
    i32 506, label %28
    i32 520, label %28
    i32 510, label %37
    i32 521, label %37
    i32 532, label %41
  ]

11:                                               ; preds = %3, %3
  %12 = load ptr, ptr %4, align 8
  %13 = load i32, ptr @hf_afs_vldb_name, align 4
  call void @OUT_RXStringV(ptr noundef %12, i32 noundef %13, i32 noundef 65)
  br label %66

14:                                               ; preds = %3, %3, %3, %3, %3, %3
  %15 = load ptr, ptr %4, align 8
  %16 = load i32, ptr @hf_afs_vldb_id, align 4
  %17 = call ptr @ptvcursor_add(ptr noundef %15, i32 noundef %16, i32 noundef 4, i32 noundef 0)
  %18 = load ptr, ptr %4, align 8
  %19 = load i32, ptr @hf_afs_vldb_type, align 4
  %20 = call ptr @ptvcursor_add(ptr noundef %18, i32 noundef %19, i32 noundef 4, i32 noundef 0)
  br label %66

21:                                               ; preds = %3, %3, %3, %3
  %22 = load ptr, ptr %4, align 8
  %23 = load i32, ptr @hf_afs_vldb_name_uint_string, align 4
  call void @OUT_RXString(ptr noundef %22, i32 noundef %23)
  br label %66

24:                                               ; preds = %3
  %25 = load ptr, ptr %4, align 8
  %26 = load i32, ptr @hf_afs_vldb_bump, align 4
  %27 = call ptr @ptvcursor_add(ptr noundef %25, i32 noundef %26, i32 noundef 4, i32 noundef 0)
  br label %66

28:                                               ; preds = %3, %3
  %29 = load ptr, ptr %4, align 8
  %30 = load i32, ptr @hf_afs_vldb_id, align 4
  %31 = call ptr @ptvcursor_add(ptr noundef %29, i32 noundef %30, i32 noundef 4, i32 noundef 0)
  %32 = load ptr, ptr %4, align 8
  %33 = load i32, ptr @hf_afs_vldb_type, align 4
  %34 = call ptr @ptvcursor_add(ptr noundef %32, i32 noundef %33, i32 noundef 4, i32 noundef 0)
  %35 = load ptr, ptr %4, align 8
  %36 = load i32, ptr @hf_afs_vldb_name, align 4
  call void @OUT_RXStringV(ptr noundef %35, i32 noundef %36, i32 noundef 65)
  br label %66

37:                                               ; preds = %3, %3
  %38 = load ptr, ptr %4, align 8
  %39 = load i32, ptr @hf_afs_vldb_index, align 4
  %40 = call ptr @ptvcursor_add(ptr noundef %38, i32 noundef %39, i32 noundef 4, i32 noundef 0)
  br label %66

41:                                               ; preds = %3
  %42 = load ptr, ptr %4, align 8
  %43 = load i32, ptr @hf_afs_vldb_serveruuid, align 4
  %44 = call ptr @ptvcursor_add(ptr noundef %42, i32 noundef %43, i32 noundef 44, i32 noundef 0)
  %45 = load ptr, ptr %4, align 8
  %46 = load i32, ptr @hf_afs_vldb_spare1, align 4
  %47 = call ptr @ptvcursor_add(ptr noundef %45, i32 noundef %46, i32 noundef 4, i32 noundef 0)
  call void @llvm.lifetime.start.p0(i64 4, ptr %7) #9
  call void @llvm.lifetime.start.p0(i64 4, ptr %8) #9
  %48 = load ptr, ptr %4, align 8
  %49 = call ptr @ptvcursor_tvbuff(ptr noundef %48)
  %50 = load ptr, ptr %4, align 8
  %51 = call i32 @ptvcursor_current_offset(ptr noundef %50)
  %52 = call i32 @tvb_get_ntohl(ptr noundef %49, i32 noundef %51)
  store i32 %52, ptr %7, align 4
  %53 = load ptr, ptr %4, align 8
  call void @ptvcursor_advance(ptr noundef %53, i32 noundef 4)
  store i32 0, ptr %8, align 4
  br label %54

54:                                               ; preds = %62, %41
  %55 = load i32, ptr %8, align 4
  %56 = load i32, ptr %7, align 4
  %57 = icmp ult i32 %55, %56
  br i1 %57, label %58, label %65

58:                                               ; preds = %54
  %59 = load ptr, ptr %4, align 8
  %60 = load i32, ptr @hf_afs_vldb_serverip, align 4
  %61 = call ptr @ptvcursor_add(ptr noundef %59, i32 noundef %60, i32 noundef 4, i32 noundef 0)
  br label %62

62:                                               ; preds = %58
  %63 = load i32, ptr %8, align 4
  %64 = add i32 %63, 1
  store i32 %64, ptr %8, align 4
  br label %54, !llvm.loop !32

65:                                               ; preds = %54
  call void @llvm.lifetime.end.p0(i64 4, ptr %8) #9
  call void @llvm.lifetime.end.p0(i64 4, ptr %7) #9
  br label %66

66:                                               ; preds = %3, %65, %37, %28, %24, %21, %14, %11
  ret void
}