; Function Attrs: null_pointer_is_valid sspstrong uwtable
define internal void @dissect_vldb_request(ptr noundef %0, ptr readnone captures(none) %1, i32 noundef %2) #0 {
  tail call void @ptvcursor_advance(ptr noundef %0, i32 noundef 4)
  switch i32 %2, label %OUT_RXString.exit [
    i32 501, label %4
    i32 517, label %4
    i32 502, label %6
    i32 503, label %6
    i32 507, label %6
    i32 508, label %6
    i32 509, label %6
    i32 518, label %6
    i32 504, label %11
    i32 519, label %11
    i32 524, label %11
    i32 527, label %11
    i32 505, label %20
    i32 506, label %23
    i32 520, label %23
    i32 510, label %29
    i32 521, label %29
    i32 532, label %32
  ]

4:                                                ; preds = %3, %3
  %5 = load i32, ptr @hf_afs_vldb_name, align 4
  tail call fastcc void @OUT_RXStringV(ptr noundef %0, i32 noundef %5, i32 noundef 65)
  br label %OUT_RXString.exit

6:                                                ; preds = %3, %3, %3, %3, %3, %3
  %7 = load i32, ptr @hf_afs_vldb_id, align 4
  %8 = tail call ptr @ptvcursor_add(ptr noundef %0, i32 noundef %7, i32 noundef 4, i32 noundef 0)
  %9 = load i32, ptr @hf_afs_vldb_type, align 4
  %10 = tail call ptr @ptvcursor_add(ptr noundef %0, i32 noundef %9, i32 noundef 4, i32 noundef 0)
  br label %OUT_RXString.exit

11:                                               ; preds = %3, %3, %3, %3
  %12 = load i32, ptr @hf_afs_vldb_name_uint_string, align 4
  %13 = tail call i32 @ptvcursor_current_offset(ptr noundef %0)
  %14 = tail call ptr @ptvcursor_add(ptr noundef %0, i32 noundef %12, i32 noundef 4, i32 noundef 0)
  %15 = tail call i32 @ptvcursor_current_offset(ptr noundef %0)
  %16 = sub i32 %15, %13
  %17 = and i32 %16, 3
  %.not.i = icmp eq i32 %17, 0
  br i1 %.not.i, label %OUT_RXString.exit, label %18

18:                                               ; preds = %11
  %19 = sub nuw nsw i32 4, %17
  tail call void @ptvcursor_advance(ptr noundef %0, i32 noundef %19)
  br label %OUT_RXString.exit

20:                                               ; preds = %3
  %21 = load i32, ptr @hf_afs_vldb_bump, align 4
  %22 = tail call ptr @ptvcursor_add(ptr noundef %0, i32 noundef %21, i32 noundef 4, i32 noundef 0)
  br label %OUT_RXString.exit

23:                                               ; preds = %3, %3
  %24 = load i32, ptr @hf_afs_vldb_id, align 4
  %25 = tail call ptr @ptvcursor_add(ptr noundef %0, i32 noundef %24, i32 noundef 4, i32 noundef 0)
  %26 = load i32, ptr @hf_afs_vldb_type, align 4
  %27 = tail call ptr @ptvcursor_add(ptr noundef %0, i32 noundef %26, i32 noundef 4, i32 noundef 0)
  %28 = load i32, ptr @hf_afs_vldb_name, align 4
  tail call fastcc void @OUT_RXStringV(ptr noundef %0, i32 noundef %28, i32 noundef 65)
  br label %OUT_RXString.exit

29:                                               ; preds = %3, %3
  %30 = load i32, ptr @hf_afs_vldb_index, align 4
  %31 = tail call ptr @ptvcursor_add(ptr noundef %0, i32 noundef %30, i32 noundef 4, i32 noundef 0)
  br label %OUT_RXString.exit

32:                                               ; preds = %3
  %33 = load i32, ptr @hf_afs_vldb_serveruuid, align 4
  %34 = tail call ptr @ptvcursor_add(ptr noundef %0, i32 noundef %33, i32 noundef 44, i32 noundef 0)
  %35 = load i32, ptr @hf_afs_vldb_spare1, align 4
  %36 = tail call ptr @ptvcursor_add(ptr noundef %0, i32 noundef %35, i32 noundef 4, i32 noundef 0)
  %37 = tail call ptr @ptvcursor_tvbuff(ptr noundef %0)
  %38 = tail call i32 @ptvcursor_current_offset(ptr noundef %0)
  %39 = tail call i32 @tvb_get_ntohl(ptr noundef %37, i32 noundef %38)
  tail call void @ptvcursor_advance(ptr noundef %0, i32 noundef 4)
  %.not = icmp eq i32 %39, 0
  br i1 %.not, label %OUT_RXString.exit, label %.lr.ph

.lr.ph:                                           ; preds = %32, %.lr.ph
  %.019 = phi i32 [ %42, %.lr.ph ], [ 0, %32 ]
  %40 = load i32, ptr @hf_afs_vldb_serverip, align 4
  %41 = tail call ptr @ptvcursor_add(ptr noundef %0, i32 noundef %40, i32 noundef 4, i32 noundef 0)
  %42 = add nuw i32 %.019, 1
  %exitcond.not = icmp eq i32 %42, %39
  br i1 %exitcond.not, label %OUT_RXString.exit, label %.lr.ph, !llvm.loop !36

OUT_RXString.exit:                                ; preds = %.lr.ph, %32, %18, %11, %29, %23, %20, %6, %4, %3
  ret void
}